; Function Attrs: mustprogress null_pointer_is_valid sspstrong uwtable
define void @_ZN8UatFrame16modelDataChangedERK11QModelIndex(ptr noundef readonly align 8 captures(none) dereferenceable_or_null(72) %0, ptr noundef align 8 dereferenceable(24) %1) #0 align 2 {
  %3 = alloca %class.QModelIndex, align 8
  call void @llvm.lifetime.start.p0(i64 24, ptr nonnull %3) #21
  store i32 -1, ptr %3, align 8
  %4 = getelementptr inbounds nuw i8, ptr %3, i64 4
  store i32 -1, ptr %4, align 4
  %5 = getelementptr inbounds nuw i8, ptr %3, i64 8
  call void @llvm.memset.p0.i64(ptr noundef nonnull align 8 dereferenceable(16) %5, i8 0, i64 16, i1 false)
  call void @_ZN8UatFrame17checkForErrorHintERK11QModelIndexS2_(ptr noundef align 8 dereferenceable_or_null(72) %0, ptr noundef align 8 dereferenceable(24) %1, ptr noundef nonnull align 8 dereferenceable(24) %3)
  call void @llvm.lifetime.end.p0(i64 24, ptr nonnull %3) #21
  call void @_ZN8UatFrame13resizeColumnsEv(ptr noundef align 8 dereferenceable_or_null(72) %0)
  ret void
}